; Function Attrs: mustprogress nofree norecurse nosync nounwind willreturn memory(argmem: read) uwtable
define hidden noundef i32 @_ZNK6cineon13GenericHeader17ImageElementCountEv(ptr nocapture noundef nonnull readonly align 4 dereferenceable(1024) %this) local_unnamed_addr #10 align 2 {
entry:
  %chan.i = getelementptr inbounds i8, ptr %this, i64 196
  br label %_ZNK6cineon13GenericHeader15ImageDescriptorEi.exit

_ZNK6cineon13GenericHeader15ImageDescriptorEi.exit: ; preds = %entry, %if.end
  %indvars.iv = phi i64 [ 0, %entry ], [ %indvars.iv.next, %if.end ]
  %arrayidx3.i = getelementptr inbounds [8 x %"struct.cineon::ImageElement"], ptr %chan.i, i64 0, i64 %indvars.iv, i32 0, i64 1
  %0 = load i8, ptr %arrayidx3.i, align 1
  %cmp2 = icmp eq i8 %0, -1
  br i1 %cmp2, label %while.end.split.loop.exit, label %if.end

if.end:                                           ; preds = %_ZNK6cineon13GenericHeader15ImageDescriptorEi.exit
  %indvars.iv.next = add nuw nsw i64 %indvars.iv, 1
  %exitcond.not = icmp eq i64 %indvars.iv.next, 8
  br i1 %exitcond.not, label %while.end, label %_ZNK6cineon13GenericHeader15ImageDescriptorEi.exit, !llvm.loop !9

while.end.split.loop.exit:                        ; preds = %_ZNK6cineon13GenericHeader15ImageDescriptorEi.exit
  %1 = trunc i64 %indvars.iv to i32
  br label %while.end

while.end:                                        ; preds = %if.end, %while.end.split.loop.exit
  %i.0.lcssa = phi i32 [ %1, %while.end.split.loop.exit ], [ 8, %if.end ]
  ret i32 %i.0.lcssa
}